target datalayout = "e-m:e-p270:32:32-p271:32:32-p272:64:64-i64:64-i128:128-f80:128-n8:16:32:64-S128"
target triple = "x86_64-pc-linux-gnu"

%struct.slurm_step_id_msg = type { i64, i32, i32, i32 }
%struct.slurm_msg = type { %struct.sockaddr_storage, ptr, i32, i32, i32, i8, i32, i8, i32, ptr, ptr, i32, ptr, ptr, i16, i8, i16, i16, %struct.forward, ptr, %struct.sockaddr_storage, ptr }
%struct.forward = type { %struct.slurm_node_alias_addrs_t, i16, i16, ptr, i32, i16, i16 }
%struct.slurm_node_alias_addrs_t = type { i64, ptr, ptr, i32, ptr }
%struct.sockaddr_storage = type { i16, [118 x i8], i64 }
%struct.slurm_step_layout = type { ptr, i32, ptr, ptr, ptr, i32, ptr, i16, i16, ptr, i32, i32, ptr }
%struct.job_step_stat_response_msg_t = type { ptr, %struct.slurm_step_id_msg }
%struct.ret_data_info = type { i16, i32, ptr, ptr }

@.str.26 = private unnamed_addr constant [44 x i8] c"%s: problem getting step_layout for %ps: %s\00", align 1
@__func__.slurm_job_step_stat = private unnamed_addr constant [20 x i8] c"slurm_job_step_stat\00", align 1
@.str.27 = private unnamed_addr constant [16 x i8] c"job_step_info.c\00", align 1
@.str.28 = private unnamed_addr constant [51 x i8] c"%s: getting pid information of job %ps on nodes %s\00", align 1
@.str.29 = private unnamed_addr constant [34 x i8] c"%s: got an error no list returned\00", align 1
@.str.30 = private unnamed_addr constant [39 x i8] c"%s: job step %ps has already completed\00", align 1
@.str.31 = private unnamed_addr constant [54 x i8] c"%s: there was an error with the request to %s rc = %s\00", align 1
@.str.32 = private unnamed_addr constant [45 x i8] c"%s: unknown return given from %s: %d rc = %s\00", align 1

; Function Attrs: nounwind uwtable
define dso_local void @slurm_job_step_stat_response_msg_free(ptr noundef %0) #0 {
  %2 = alloca ptr, align 8
  %3 = alloca ptr, align 8
  store ptr %0, ptr %2, align 8
  call void @llvm.lifetime.start.p0(i64 8, ptr %3) #8
  %4 = load ptr, ptr %2, align 8
  store ptr %4, ptr %3, align 8
  %5 = load ptr, ptr %3, align 8
  %6 = icmp ne ptr %5, null
  br i1 %6, label %7, label %22

7:                                                ; preds = %1
  br label %8

8:                                                ; preds = %7
  %9 = load ptr, ptr %3, align 8
  %10 = getelementptr inbounds nuw %struct.job_step_stat_response_msg_t, ptr %9, i32 0, i32 0
  %11 = load ptr, ptr %10, align 8
  %12 = icmp ne ptr %11, null
  br i1 %12, label %13, label %17

13:                                               ; preds = %8
  %14 = load ptr, ptr %3, align 8
  %15 = getelementptr inbounds nuw %struct.job_step_stat_response_msg_t, ptr %14, i32 0, i32 0
  %16 = load ptr, ptr %15, align 8
  call void @list_destroy(ptr noundef %16)
  br label %17

17:                                               ; preds = %13, %8
  %18 = load ptr, ptr %3, align 8
  %19 = getelementptr inbounds nuw %struct.job_step_stat_response_msg_t, ptr %18, i32 0, i32 0
  store ptr null, ptr %19, align 8
  br label %20

20:                                               ; preds = %17
  br label %21

21:                                               ; preds = %20
  call void @slurm_xfree(ptr noundef %3)
  br label %22

22:                                               ; preds = %21, %1
  call void @llvm.lifetime.end.p0(i64 8, ptr %3) #8
  ret void
}

; Function Attrs: nounwind uwtable
define dso_local i32 @slurm_job_step_stat(ptr noundef %0, ptr noundef %1, i16 noundef zeroext %2, ptr noundef %3) #0 {
  %5 = alloca i32, align 4
  %6 = alloca ptr, align 8
  %7 = alloca ptr, align 8
  %8 = alloca i16, align 2
  %9 = alloca ptr, align 8
  %10 = alloca %struct.slurm_msg, align 8
  %11 = alloca ptr, align 8
  %12 = alloca %struct.slurm_step_id_msg, align 8
  %13 = alloca ptr, align 8
  %14 = alloca ptr, align 8
  %15 = alloca i32, align 4
  %16 = alloca ptr, align 8
  %17 = alloca ptr, align 8
  %18 = alloca i8, align 1
  %19 = alloca i32, align 4
  store ptr %0, ptr %6, align 8
  store ptr %1, ptr %7, align 8
  store i16 %2, ptr %8, align 2
  store ptr %3, ptr %9, align 8
  call void @llvm.lifetime.start.p0(i64 424, ptr %10) #8
  call void @llvm.lifetime.start.p0(i64 8, ptr %11) #8
  call void @llvm.lifetime.start.p0(i64 24, ptr %12) #8
  call void @llvm.lifetime.start.p0(i64 8, ptr %13) #8
  store ptr null, ptr %13, align 8
  call void @llvm.lifetime.start.p0(i64 8, ptr %14) #8
  store ptr null, ptr %14, align 8
  call void @llvm.lifetime.start.p0(i64 4, ptr %15) #8
  store i32 0, ptr %15, align 4
  call void @llvm.lifetime.start.p0(i64 8, ptr %16) #8
  store ptr null, ptr %16, align 8
  call void @llvm.lifetime.start.p0(i64 8, ptr %17) #8
  call void @llvm.lifetime.start.p0(i64 1, ptr %18) #8
  store i8 0, ptr %18, align 1
  %20 = load ptr, ptr %7, align 8
  %21 = icmp ne ptr %20, null
  br i1 %21, label %55, label %22

22:                                               ; preds = %4
  %23 = load ptr, ptr %6, align 8
  %24 = call ptr @slurm_job_step_layout_get(ptr noundef %23)
  store ptr %24, ptr %16, align 8
  %25 = icmp ne ptr %24, null
  br i1 %25, label %34, label %26

26:                                               ; preds = %22
  %27 = call ptr @__errno_location() #9
  %28 = load i32, ptr %27, align 4
  store i32 %28, ptr %15, align 4
  %29 = load ptr, ptr %6, align 8
  %30 = load i32, ptr %15, align 4
  %31 = call ptr @slurm_strerror(i32 noundef %30)
  %32 = call i32 (ptr, ...) @error(ptr noundef @.str.26, ptr noundef @__func__.slurm_job_step_stat, ptr noundef %29, ptr noundef %31)
  %33 = load i32, ptr %15, align 4
  store i32 %33, ptr %5, align 4
  store i32 1, ptr %19, align 4
  br label %211

34:                                               ; preds = %22
  %35 = load ptr, ptr %16, align 8
  %36 = getelementptr inbounds nuw %struct.slurm_step_layout, ptr %35, i32 0, i32 6
  %37 = load ptr, ptr %36, align 8
  store ptr %37, ptr %7, align 8
  %38 = load ptr, ptr %16, align 8
  %39 = getelementptr inbounds nuw %struct.slurm_step_layout, ptr %38, i32 0, i32 8
  %40 = load i16, ptr %39, align 2
  %41 = zext i16 %40 to i32
  %42 = icmp slt i32 11008, %41
  br i1 %42, label %43, label %44

43:                                               ; preds = %34
  br label %49

44:                                               ; preds = %34
  %45 = load ptr, ptr %16, align 8
  %46 = getelementptr inbounds nuw %struct.slurm_step_layout, ptr %45, i32 0, i32 8
  %47 = load i16, ptr %46, align 2
  %48 = zext i16 %47 to i32
  br label %49

49:                                               ; preds = %44, %43
  %50 = phi i32 [ 11008, %43 ], [ %48, %44 ]
  %51 = trunc i32 %50 to i16
  store i16 %51, ptr %8, align 2
  %52 = load ptr, ptr %16, align 8
  %53 = getelementptr inbounds nuw %struct.slurm_step_layout, ptr %52, i32 0, i32 4
  %54 = load ptr, ptr %53, align 8
  call void @fwd_set_alias_addrs(ptr noundef %54)
  br label %55

55:                                               ; preds = %49, %4
  %56 = load ptr, ptr %9, align 8
  %57 = load ptr, ptr %56, align 8
  %58 = icmp ne ptr %57, null
  br i1 %58, label %63, label %59

59:                                               ; preds = %55
  %60 = call ptr @slurm_xcalloc(i64 noundef 1, i64 noundef 32, i1 noundef zeroext true, i1 noundef zeroext false, ptr noundef @.str.27, i32 noundef 740, ptr noundef @__func__.slurm_job_step_stat)
  store ptr %60, ptr %17, align 8
  %61 = load ptr, ptr %17, align 8
  %62 = load ptr, ptr %9, align 8
  store ptr %61, ptr %62, align 8
  store i8 1, ptr %18, align 1
  br label %66

63:                                               ; preds = %55
  %64 = load ptr, ptr %9, align 8
  %65 = load ptr, ptr %64, align 8
  store ptr %65, ptr %17, align 8
  br label %66

66:                                               ; preds = %63, %59
  br label %67

67:                                               ; preds = %66
  br label %68

68:                                               ; preds = %67
  %69 = call i32 @get_log_level()
  %70 = icmp sge i32 %69, 5
  br i1 %70, label %71, label %74

71:                                               ; preds = %68
  %72 = load ptr, ptr %6, align 8
  %73 = load ptr, ptr %7, align 8
  call void (i32, ptr, ...) @log_var(i32 noundef 5, ptr noundef @.str.28, ptr noundef @__func__.slurm_job_step_stat, ptr noundef %72, ptr noundef %73)
  br label %74

74:                                               ; preds = %71, %68
  br label %75

75:                                               ; preds = %74
  br label %76

76:                                               ; preds = %75
  br label %77

77:                                               ; preds = %76
  br label %78

78:                                               ; preds = %77
  call void @slurm_msg_t_init(ptr noundef %10)
  call void @slurm_msg_set_r_uid(ptr noundef %10, i32 noundef -1)
  %79 = load ptr, ptr %6, align 8
  call void @llvm.memcpy.p0.p0.i64(ptr align 8 %12, ptr align 8 %79, i64 24, i1 false)
  %80 = load ptr, ptr %17, align 8
  %81 = getelementptr inbounds nuw %struct.job_step_stat_response_msg_t, ptr %80, i32 0, i32 1
  %82 = load ptr, ptr %6, align 8
  call void @llvm.memcpy.p0.p0.i64(ptr align 8 %81, ptr align 8 %82, i64 24, i1 false)
  %83 = load i16, ptr %8, align 2
  %84 = zext i16 %83 to i32
  %85 = icmp slt i32 11008, %84
  br i1 %85, label %86, label %87

86:                                               ; preds = %78
  br label %90

87:                                               ; preds = %78
  %88 = load i16, ptr %8, align 2
  %89 = zext i16 %88 to i32
  br label %90

90:                                               ; preds = %87, %86
  %91 = phi i32 [ 11008, %86 ], [ %89, %87 ]
  %92 = trunc i32 %91 to i16
  %93 = getelementptr inbounds nuw %struct.slurm_msg, ptr %10, i32 0, i32 17
  store i16 %92, ptr %93, align 2
  %94 = getelementptr inbounds nuw %struct.slurm_msg, ptr %10, i32 0, i32 16
  store i16 5019, ptr %94, align 4
  %95 = getelementptr inbounds nuw %struct.slurm_msg, ptr %10, i32 0, i32 13
  store ptr %12, ptr %95, align 8
  %96 = load ptr, ptr %7, align 8
  %97 = call ptr @slurm_send_recv_msgs(ptr noundef %96, ptr noundef %10, i32 noundef 0)
  store ptr %97, ptr %13, align 8
  %98 = icmp ne ptr %97, null
  br i1 %98, label %107, label %99

99:                                               ; preds = %90
  %100 = call i32 (ptr, ...) @error(ptr noundef @.str.29, ptr noundef @__func__.slurm_job_step_stat)
  store i32 -1, ptr %15, align 4
  %101 = load i8, ptr %18, align 1, !range !12, !noundef !13
  %102 = trunc i8 %101 to i1
  br i1 %102, label %103, label %106

103:                                              ; preds = %99
  %104 = load ptr, ptr %17, align 8
  call void @slurm_job_step_stat_response_msg_free(ptr noundef %104)
  %105 = load ptr, ptr %9, align 8
  store ptr null, ptr %105, align 8
  br label %106

106:                                              ; preds = %103, %99
  br label %207

107:                                              ; preds = %90
  %108 = load ptr, ptr %13, align 8
  %109 = call ptr @list_iterator_create(ptr noundef %108)
  store ptr %109, ptr %11, align 8
  br label %110

110:                                              ; preds = %187, %107
  %111 = load ptr, ptr %11, align 8
  %112 = call ptr @list_next(ptr noundef %111)
  store ptr %112, ptr %14, align 8
  %113 = icmp ne ptr %112, null
  br i1 %113, label %114, label %188

114:                                              ; preds = %110
  %115 = load ptr, ptr %14, align 8
  %116 = getelementptr inbounds nuw %struct.ret_data_info, ptr %115, i32 0, i32 0
  %117 = load i16, ptr %116, align 8
  %118 = zext i16 %117 to i32
  switch i32 %118, label %168 [
    i32 5020, label %119
    i32 8001, label %137
  ]

119:                                              ; preds = %114
  %120 = load ptr, ptr %17, align 8
  %121 = getelementptr inbounds nuw %struct.job_step_stat_response_msg_t, ptr %120, i32 0, i32 0
  %122 = load ptr, ptr %121, align 8
  %123 = icmp ne ptr %122, null
  br i1 %123, label %128, label %124

124:                                              ; preds = %119
  %125 = call ptr @list_create(ptr noundef @slurm_free_job_step_stat)
  %126 = load ptr, ptr %17, align 8
  %127 = getelementptr inbounds nuw %struct.job_step_stat_response_msg_t, ptr %126, i32 0, i32 0
  store ptr %125, ptr %127, align 8
  br label %128

128:                                              ; preds = %124, %119
  %129 = load ptr, ptr %17, align 8
  %130 = getelementptr inbounds nuw %struct.job_step_stat_response_msg_t, ptr %129, i32 0, i32 0
  %131 = load ptr, ptr %130, align 8
  %132 = load ptr, ptr %14, align 8
  %133 = getelementptr inbounds nuw %struct.ret_data_info, ptr %132, i32 0, i32 3
  %134 = load ptr, ptr %133, align 8
  call void @list_push(ptr noundef %131, ptr noundef %134)
  %135 = load ptr, ptr %14, align 8
  %136 = getelementptr inbounds nuw %struct.ret_data_info, ptr %135, i32 0, i32 3
  store ptr null, ptr %136, align 8
  br label %187

137:                                              ; preds = %114
  %138 = load ptr, ptr %14, align 8
  %139 = getelementptr inbounds nuw %struct.ret_data_info, ptr %138, i32 0, i32 0
  %140 = load i16, ptr %139, align 8
  %141 = zext i16 %140 to i32
  %142 = load ptr, ptr %14, align 8
  %143 = getelementptr inbounds nuw %struct.ret_data_info, ptr %142, i32 0, i32 3
  %144 = load ptr, ptr %143, align 8
  %145 = call i32 @slurm_get_return_code(i32 noundef %141, ptr noundef %144)
  store i32 %145, ptr %15, align 4
  %146 = load i32, ptr %15, align 4
  %147 = icmp eq i32 %146, 2017
  br i1 %147, label %148, label %160

148:                                              ; preds = %137
  br label %149

149:                                              ; preds = %148
  br label %150

150:                                              ; preds = %149
  %151 = call i32 @get_log_level()
  %152 = icmp sge i32 %151, 5
  br i1 %152, label %153, label %155

153:                                              ; preds = %150
  %154 = load ptr, ptr %6, align 8
  call void (i32, ptr, ...) @log_var(i32 noundef 5, ptr noundef @.str.30, ptr noundef @__func__.slurm_job_step_stat, ptr noundef %154)
  br label %155

155:                                              ; preds = %153, %150
  br label %156

156:                                              ; preds = %155
  br label %157

157:                                              ; preds = %156
  br label %158

158:                                              ; preds = %157
  br label %159

159:                                              ; preds = %158
  br label %167

160:                                              ; preds = %137
  %161 = load ptr, ptr %14, align 8
  %162 = getelementptr inbounds nuw %struct.ret_data_info, ptr %161, i32 0, i32 2
  %163 = load ptr, ptr %162, align 8
  %164 = load i32, ptr %15, align 4
  %165 = call ptr @slurm_strerror(i32 noundef %164)
  %166 = call i32 (ptr, ...) @error(ptr noundef @.str.31, ptr noundef @__func__.slurm_job_step_stat, ptr noundef %163, ptr noundef %165)
  br label %167

167:                                              ; preds = %160, %159
  br label %187

168:                                              ; preds = %114
  %169 = load ptr, ptr %14, align 8
  %170 = getelementptr inbounds nuw %struct.ret_data_info, ptr %169, i32 0, i32 0
  %171 = load i16, ptr %170, align 8
  %172 = zext i16 %171 to i32
  %173 = load ptr, ptr %14, align 8
  %174 = getelementptr inbounds nuw %struct.ret_data_info, ptr %173, i32 0, i32 3
  %175 = load ptr, ptr %174, align 8
  %176 = call i32 @slurm_get_return_code(i32 noundef %172, ptr noundef %175)
  store i32 %176, ptr %15, align 4
  %177 = load ptr, ptr %14, align 8
  %178 = getelementptr inbounds nuw %struct.ret_data_info, ptr %177, i32 0, i32 2
  %179 = load ptr, ptr %178, align 8
  %180 = load ptr, ptr %14, align 8
  %181 = getelementptr inbounds nuw %struct.ret_data_info, ptr %180, i32 0, i32 0
  %182 = load i16, ptr %181, align 8
  %183 = zext i16 %182 to i32
  %184 = load i32, ptr %15, align 4
  %185 = call ptr @slurm_strerror(i32 noundef %184)
  %186 = call i32 (ptr, ...) @error(ptr noundef @.str.32, ptr noundef @__func__.slurm_job_step_stat, ptr noundef %179, i32 noundef %183, ptr noundef %185)
  br label %187

187:                                              ; preds = %168, %167, %128
  br label %110, !llvm.loop !16

188:                                              ; preds = %110
  %189 = load ptr, ptr %11, align 8
  call void @list_iterator_destroy(ptr noundef %189)
  br label %190

190:                                              ; preds = %188
  %191 = load ptr, ptr %13, align 8
  %192 = icmp ne ptr %191, null
  br i1 %192, label %193, label %195

193:                                              ; preds = %190
  %194 = load ptr, ptr %13, align 8
  call void @list_destroy(ptr noundef %194)
  br label %195

195:                                              ; preds = %193, %190
  store ptr null, ptr %13, align 8
  br label %196

196:                                              ; preds = %195
  br label %197

197:                                              ; preds = %196
  %198 = load ptr, ptr %17, align 8
  %199 = getelementptr inbounds nuw %struct.job_step_stat_response_msg_t, ptr %198, i32 0, i32 0
  %200 = load ptr, ptr %199, align 8
  %201 = icmp ne ptr %200, null
  br i1 %201, label %202, label %206

202:                                              ; preds = %197
  %203 = load ptr, ptr %17, align 8
  %204 = getelementptr inbounds nuw %struct.job_step_stat_response_msg_t, ptr %203, i32 0, i32 0
  %205 = load ptr, ptr %204, align 8
  call void @list_sort(ptr noundef %205, ptr noundef @_sort_stats_by_name)
  br label %206

206:                                              ; preds = %202, %197
  br label %207

207:                                              ; preds = %206, %106
  %208 = load ptr, ptr %16, align 8
  %209 = call i32 @slurm_step_layout_destroy(ptr noundef %208)
  %210 = load i32, ptr %15, align 4
  store i32 %210, ptr %5, align 4
  store i32 1, ptr %19, align 4
  br label %211

211:                                              ; preds = %207, %26
  call void @llvm.lifetime.end.p0(i64 1, ptr %18) #8
  call void @llvm.lifetime.end.p0(i64 8, ptr %17) #8
  call void @llvm.lifetime.end.p0(i64 8, ptr %16) #8
  call void @llvm.lifetime.end.p0(i64 4, ptr %15) #8
  call void @llvm.lifetime.end.p0(i64 8, ptr %14) #8
  call void @llvm.lifetime.end.p0(i64 8, ptr %13) #8
  call void @llvm.lifetime.end.p0(i64 24, ptr %12) #8
  call void @llvm.lifetime.end.p0(i64 8, ptr %11) #8
  call void @llvm.lifetime.end.p0(i64 424, ptr %10) #8
  %212 = load i32, ptr %5, align 4
  ret i32 %212
}