; Function Attrs: nounwind uwtable
define dso_local i32 @slurm_job_step_stat(ptr noundef %0, ptr noundef %1, i16 noundef zeroext %2, ptr noundef captures(none) %3) local_unnamed_addr #0 {
  %5 = alloca ptr, align 8
  %6 = alloca %struct.slurm_msg, align 8
  %7 = alloca %struct.slurm_step_id_msg, align 8
  call void @llvm.lifetime.start.p0(i64 424, ptr nonnull %6) #11
  call void @llvm.lifetime.start.p0(i64 24, ptr nonnull %7) #11
  %.not = icmp eq ptr %1, null
  br i1 %.not, label %8, label %22

8:                                                ; preds = %4
  %9 = tail call ptr @slurm_job_step_layout_get(ptr noundef %0)
  %.not66 = icmp eq ptr %9, null
  br i1 %.not66, label %10, label %15

10:                                               ; preds = %8
  %11 = tail call ptr @__errno_location() #12
  %12 = load i32, ptr %11, align 4
  %13 = tail call ptr @slurm_strerror(i32 noundef %12) #11
  %14 = tail call i32 (ptr, ...) @error(ptr noundef nonnull @.str.26, ptr noundef nonnull @__func__.slurm_job_step_stat, ptr noundef %0, ptr noundef %13) #11
  br label %86

15:                                               ; preds = %8
  %16 = getelementptr inbounds nuw i8, ptr %9, i64 48
  %17 = load ptr, ptr %16, align 8
  %18 = getelementptr inbounds nuw i8, ptr %9, i64 58
  %19 = load i16, ptr %18, align 2
  %spec.select = tail call i16 @llvm.umin.i16(i16 %19, i16 11008)
  %20 = getelementptr inbounds nuw i8, ptr %9, i64 32
  %21 = load ptr, ptr %20, align 8
  tail call void @fwd_set_alias_addrs(ptr noundef %21) #11
  br label %22

22:                                               ; preds = %15, %4
  %.055 = phi i16 [ %2, %4 ], [ %spec.select, %15 ]
  %.054 = phi ptr [ %1, %4 ], [ %17, %15 ]
  %.051 = phi ptr [ null, %4 ], [ %9, %15 ]
  %23 = load ptr, ptr %3, align 8
  %.not67 = icmp eq ptr %23, null
  br i1 %.not67, label %24, label %26

24:                                               ; preds = %22
  %25 = tail call ptr @slurm_xcalloc(i64 noundef 1, i64 noundef 32, i1 noundef zeroext true, i1 noundef zeroext false, ptr noundef nonnull @.str.27, i32 noundef 740, ptr noundef nonnull @__func__.slurm_job_step_stat) #11
  store ptr %25, ptr %3, align 8
  br label %26

26:                                               ; preds = %22, %24
  %.050 = phi ptr [ %25, %24 ], [ %23, %22 ]
  %27 = tail call i32 @get_log_level() #11
  %28 = icmp sgt i32 %27, 4
  br i1 %28, label %29, label %30

29:                                               ; preds = %26
  tail call void (i32, ptr, ...) @log_var(i32 noundef 5, ptr noundef nonnull @.str.28, ptr noundef nonnull @__func__.slurm_job_step_stat, ptr noundef %0, ptr noundef %.054) #11
  br label %30

30:                                               ; preds = %29, %26
  call void @slurm_msg_t_init(ptr noundef nonnull %6) #11
  call void @slurm_msg_set_r_uid(ptr noundef nonnull %6, i32 noundef -1) #11
  call void @llvm.memcpy.p0.p0.i64(ptr noundef nonnull align 8 dereferenceable(24) %7, ptr noundef nonnull align 8 dereferenceable(24) %0, i64 24, i1 false)
  %31 = getelementptr inbounds nuw i8, ptr %.050, i64 8
  call void @llvm.memcpy.p0.p0.i64(ptr noundef nonnull align 8 dereferenceable(24) %31, ptr noundef nonnull align 8 dereferenceable(24) %0, i64 24, i1 false)
  %32 = call i16 @llvm.umin.i16(i16 %.055, i16 11008)
  %33 = getelementptr inbounds nuw i8, ptr %6, i64 214
  store i16 %32, ptr %33, align 2
  %34 = getelementptr inbounds nuw i8, ptr %6, i64 212
  store i16 5019, ptr %34, align 4
  %35 = getelementptr inbounds nuw i8, ptr %6, i64 200
  store ptr %7, ptr %35, align 8
  %36 = call ptr @slurm_send_recv_msgs(ptr noundef %.054, ptr noundef nonnull %6, i32 noundef 0) #11
  %.not68 = icmp eq ptr %36, null
  br i1 %.not68, label %37, label %42

37:                                               ; preds = %30
  %38 = call i32 (ptr, ...) @error(ptr noundef nonnull @.str.29, ptr noundef nonnull @__func__.slurm_job_step_stat) #11
  br i1 %.not67, label %39, label %84

39:                                               ; preds = %37
  call void @llvm.lifetime.start.p0(i64 8, ptr nonnull %5) #11
  store ptr %.050, ptr %5, align 8
  %40 = load ptr, ptr %.050, align 8
  %.not2.i = icmp eq ptr %40, null
  br i1 %.not2.i, label %slurm_job_step_stat_response_msg_free.exit, label %41

41:                                               ; preds = %39
  call void @list_destroy(ptr noundef nonnull %40) #11
  br label %slurm_job_step_stat_response_msg_free.exit

slurm_job_step_stat_response_msg_free.exit:       ; preds = %39, %41
  store ptr null, ptr %.050, align 8
  call void @slurm_xfree(ptr noundef nonnull %5) #11
  call void @llvm.lifetime.end.p0(i64 8, ptr nonnull %5) #11
  store ptr null, ptr %3, align 8
  br label %84

42:                                               ; preds = %30
  %43 = call ptr @list_iterator_create(ptr noundef nonnull %36) #11
  %44 = call ptr @list_next(ptr noundef %43) #11
  %.not6972 = icmp eq ptr %44, null
  br i1 %.not6972, label %._crit_edge, label %.lr.ph

.lr.ph:                                           ; preds = %42, %80
  %45 = phi ptr [ %81, %80 ], [ %44, %42 ]
  %.173 = phi i32 [ %.2, %80 ], [ 0, %42 ]
  %46 = load i16, ptr %45, align 8
  switch i16 %46, label %69 [
    i16 5020, label %47
    i16 8001, label %55
  ]

47:                                               ; preds = %.lr.ph
  %48 = load ptr, ptr %.050, align 8
  %.not71 = icmp eq ptr %48, null
  br i1 %.not71, label %49, label %51

49:                                               ; preds = %47
  %50 = call ptr @list_create(ptr noundef nonnull @slurm_free_job_step_stat) #11
  store ptr %50, ptr %.050, align 8
  br label %51

51:                                               ; preds = %49, %47
  %52 = phi ptr [ %50, %49 ], [ %48, %47 ]
  %53 = getelementptr inbounds nuw i8, ptr %45, i64 16
  %54 = load ptr, ptr %53, align 8
  call void @list_push(ptr noundef %52, ptr noundef %54) #11
  store ptr null, ptr %53, align 8
  br label %80

55:                                               ; preds = %.lr.ph
  %56 = getelementptr inbounds nuw i8, ptr %45, i64 16
  %57 = load ptr, ptr %56, align 8
  %58 = call i32 @slurm_get_return_code(i32 noundef 8001, ptr noundef %57) #11
  %59 = icmp eq i32 %58, 2017
  br i1 %59, label %60, label %64

60:                                               ; preds = %55
  %61 = call i32 @get_log_level() #11
  %62 = icmp sgt i32 %61, 4
  br i1 %62, label %63, label %80

63:                                               ; preds = %60
  call void (i32, ptr, ...) @log_var(i32 noundef 5, ptr noundef nonnull @.str.30, ptr noundef nonnull @__func__.slurm_job_step_stat, ptr noundef nonnull %0) #11
  br label %80

64:                                               ; preds = %55
  %65 = getelementptr inbounds nuw i8, ptr %45, i64 8
  %66 = load ptr, ptr %65, align 8
  %67 = call ptr @slurm_strerror(i32 noundef %58) #11
  %68 = call i32 (ptr, ...) @error(ptr noundef nonnull @.str.31, ptr noundef nonnull @__func__.slurm_job_step_stat, ptr noundef %66, ptr noundef %67) #11
  br label %80

69:                                               ; preds = %.lr.ph
  %70 = zext i16 %46 to i32
  %71 = getelementptr inbounds nuw i8, ptr %45, i64 16
  %72 = load ptr, ptr %71, align 8
  %73 = call i32 @slurm_get_return_code(i32 noundef %70, ptr noundef %72) #11
  %74 = getelementptr inbounds nuw i8, ptr %45, i64 8
  %75 = load ptr, ptr %74, align 8
  %76 = load i16, ptr %45, align 8
  %77 = zext i16 %76 to i32
  %78 = call ptr @slurm_strerror(i32 noundef %73) #11
  %79 = call i32 (ptr, ...) @error(ptr noundef nonnull @.str.32, ptr noundef nonnull @__func__.slurm_job_step_stat, ptr noundef %75, i32 noundef %77, ptr noundef %78) #11
  br label %80

80:                                               ; preds = %64, %63, %60, %69, %51
  %.2 = phi i32 [ %73, %69 ], [ 2017, %63 ], [ 2017, %60 ], [ %58, %64 ], [ %.173, %51 ]
  %81 = call ptr @list_next(ptr noundef %43) #11
  %.not69 = icmp eq ptr %81, null
  br i1 %.not69, label %._crit_edge, label %.lr.ph, !llvm.loop !14

._crit_edge:                                      ; preds = %80, %42
  %.1.lcssa = phi i32 [ 0, %42 ], [ %.2, %80 ]
  call void @list_iterator_destroy(ptr noundef %43) #11
  call void @list_destroy(ptr noundef nonnull %36) #11
  %82 = load ptr, ptr %.050, align 8
  %.not70 = icmp eq ptr %82, null
  br i1 %.not70, label %84, label %83

83:                                               ; preds = %._crit_edge
  call void @list_sort(ptr noundef nonnull %82, ptr noundef nonnull @_sort_stats_by_name) #11
  br label %84

84:                                               ; preds = %._crit_edge, %83, %37, %slurm_job_step_stat_response_msg_free.exit
  %.052 = phi i32 [ %.1.lcssa, %83 ], [ %.1.lcssa, %._crit_edge ], [ -1, %slurm_job_step_stat_response_msg_free.exit ], [ -1, %37 ]
  %85 = call i32 @slurm_step_layout_destroy(ptr noundef %.051) #11
  br label %86

86:                                               ; preds = %84, %10
  %.053 = phi i32 [ %.052, %84 ], [ %12, %10 ]
  call void @llvm.lifetime.end.p0(i64 24, ptr nonnull %7) #11
  call void @llvm.lifetime.end.p0(i64 424, ptr nonnull %6) #11
  ret i32 %.053
}